; Function Attrs: mustprogress nounwind uwtable
define hidden void @_ZN18JVMTIAgentLoadDCmdC2EP12outputStreamb(ptr noundef nonnull align 8 dereferenceable(168) %0, ptr noundef %1, i1 noundef zeroext %2) unnamed_addr #0 align 2 {
  %4 = zext i1 %2 to i8
  %5 = getelementptr inbounds i8, ptr %0, i64 8
  store ptr %1, ptr %5, align 8
  %6 = getelementptr inbounds i8, ptr %0, i64 16
  store i8 %4, ptr %6, align 8
  %7 = getelementptr inbounds i8, ptr %0, i64 24
  tail call void @llvm.memset.p0.i64(ptr noundef nonnull align 8 dereferenceable(16) %7, i8 0, i64 16, i1 false)
  store ptr getelementptr inbounds inrange(-16, 56) (i8, ptr @_ZTV18JVMTIAgentLoadDCmd, i64 16), ptr %0, align 8
  %8 = getelementptr inbounds i8, ptr %0, i64 40
  %9 = getelementptr inbounds i8, ptr %0, i64 48
  store ptr null, ptr %9, align 8
  %10 = getelementptr inbounds i8, ptr %0, i64 56
  store ptr @.str.27, ptr %10, align 8
  %11 = getelementptr inbounds i8, ptr %0, i64 64
  store ptr @.str.28, ptr %11, align 8
  %12 = getelementptr inbounds i8, ptr %0, i64 72
  store ptr @.str.9, ptr %12, align 8
  %13 = getelementptr inbounds i8, ptr %0, i64 80
  store ptr null, ptr %13, align 8
  %14 = getelementptr inbounds i8, ptr %0, i64 88
  store i8 0, ptr %14, align 8
  %15 = getelementptr inbounds i8, ptr %0, i64 89
  store i8 1, ptr %15, align 1
  %16 = getelementptr inbounds i8, ptr %0, i64 90
  store i8 0, ptr %16, align 2
  store ptr getelementptr inbounds inrange(-16, 40) (i8, ptr @_ZTV12DCmdArgumentIPcE, i64 16), ptr %8, align 8
  %17 = getelementptr inbounds i8, ptr %0, i64 104
  %18 = getelementptr inbounds i8, ptr %0, i64 112
  store ptr null, ptr %18, align 8
  %19 = getelementptr inbounds i8, ptr %0, i64 120
  store ptr @.str.29, ptr %19, align 8
  %20 = getelementptr inbounds i8, ptr %0, i64 128
  store ptr @.str.30, ptr %20, align 8
  %21 = getelementptr inbounds i8, ptr %0, i64 136
  store ptr @.str.9, ptr %21, align 8
  %22 = getelementptr inbounds i8, ptr %0, i64 144
  tail call void @llvm.memset.p0.i64(ptr noundef nonnull align 8 dereferenceable(11) %22, i8 0, i64 11, i1 false)
  store ptr getelementptr inbounds inrange(-16, 40) (i8, ptr @_ZTV12DCmdArgumentIPcE, i64 16), ptr %17, align 8
  tail call void @_ZN10DCmdParser17add_dcmd_argumentEP15GenDCmdArgument(ptr noundef nonnull align 8 dereferenceable(16) %7, ptr noundef nonnull %8) #17
  tail call void @_ZN10DCmdParser17add_dcmd_argumentEP15GenDCmdArgument(ptr noundef nonnull align 8 dereferenceable(16) %7, ptr noundef nonnull %17) #17
  ret void
}